; Function Attrs: nounwind uwtable
define i32 @Mf_ManTruthCount() local_unnamed_addr #0 {
  %1 = tail call ptr @Mf_ManTruthCollect(i32 noundef 10)
  %2 = getelementptr i8, ptr %1, i64 4
  %.val = load i32, ptr %2, align 4, !tbaa !41
  %3 = getelementptr inbounds nuw i8, ptr %1, i64 8
  %4 = load ptr, ptr %3, align 8, !tbaa !44
  %.not.i = icmp eq ptr %4, null
  br i1 %.not.i, label %Vec_WrdFree.exit, label %5

5:                                                ; preds = %0
  tail call void @free(ptr noundef nonnull %4) #29
  br label %Vec_WrdFree.exit

Vec_WrdFree.exit:                                 ; preds = %0, %5
  tail call void @free(ptr noundef nonnull %1) #29
  ret i32 %.val
}